; ModuleID = 'source-C-CXX/61/2635.c'
source_filename = "source-C-CXX/61/2635.c"
target datalayout = "e-m:e-p270:32:32-p271:32:32-p272:64:64-i64:64-f80:128-n8:16:32:64-S128"
target triple = "x86_64-pc-linux-gnu"

; Function Attrs: nounwind sspstrong uwtable
define dso_local i32 @main() local_unnamed_addr #0 {
  %1 = alloca [230 x i8], align 16
  %2 = getelementptr inbounds [230 x i8], [230 x i8]* %1, i64 0, i64 0
  call void @llvm.lifetime.start.p0i8(i64 230, i8* nonnull %2) #4
  %3 = call i32 (i8*, ...) bitcast (i32 (...)* @gets to i32 (i8*, ...)*)(i8* nonnull %2) #4
  br label %4

4:                                                ; preds = %23, %0
  %5 = phi i32 [ 0, %0 ], [ %25, %23 ]
  %6 = sext i32 %5 to i64
  %7 = getelementptr inbounds [230 x i8], [230 x i8]* %1, i64 0, i64 %6
  %8 = load i8, i8* %7, align 1, !tbaa !5
  switch i8 %8, label %23 [
    i8 0, label %26
    i8 32, label %9
  ]

9:                                                ; preds = %4
  %10 = add nsw i32 %5, -1
  %11 = sext i32 %10 to i64
  %12 = getelementptr inbounds [230 x i8], [230 x i8]* %1, i64 0, i64 %11
  %13 = load i8, i8* %12, align 1, !tbaa !5
  %14 = icmp eq i8 %13, 32
  br i1 %14, label %15, label %23

15:                                               ; preds = %9, %15
  %16 = phi i64 [ %18, %15 ], [ %6, %9 ]
  %17 = phi i8* [ %19, %15 ], [ %7, %9 ]
  %18 = add nsw i64 %16, 1
  %19 = getelementptr inbounds [230 x i8], [230 x i8]* %1, i64 0, i64 %18
  %20 = load i8, i8* %19, align 1, !tbaa !5
  store i8 %20, i8* %17, align 1, !tbaa !5
  %21 = load i8, i8* %19, align 1, !tbaa !5
  %22 = icmp eq i8 %21, 0
  br i1 %22, label %23, label %15, !llvm.loop !8

23:                                               ; preds = %15, %4, %9
  %24 = phi i32 [ %5, %9 ], [ %5, %4 ], [ %10, %15 ]
  %25 = add nsw i32 %24, 1
  br label %4, !llvm.loop !10

26:                                               ; preds = %4
  %27 = call i32 @puts(i8* nonnull %2)
  call void @llvm.lifetime.end.p0i8(i64 230, i8* nonnull %2) #4
  ret i32 0
}

; Function Attrs: argmemonly mustprogress nofree nosync nounwind willreturn
declare void @llvm.lifetime.start.p0i8(i64 immarg, i8* nocapture) #1

declare i32 @gets(...) local_unnamed_addr #2

; Function Attrs: nofree nounwind
declare noundef i32 @puts(i8* nocapture noundef readonly) local_unnamed_addr #3

; Function Attrs: argmemonly mustprogress nofree nosync nounwind willreturn
declare void @llvm.lifetime.end.p0i8(i64 immarg, i8* nocapture) #1


!llvm.module.flags = !{!0, !1, !2, !3}
!llvm.ident = !{!4}

!0 = !{i32 1, !"wchar_size", i32 4}
!1 = !{i32 7, !"PIC Level", i32 2}
!2 = !{i32 7, !"PIE Level", i32 2}
!3 = !{i32 7, !"uwtable", i32 1}
!4 = !{!"clang version 13.0.0"}
!5 = !{!6, !6, i64 0}
!6 = !{!"omnipotent char", !7, i64 0}
!7 = !{!"Simple C/C++ TBAA"}
!8 = distinct !{!8, !9}
!9 = !{!"llvm.loop.mustprogress"}
!10 = distinct !{!10, !9}
